(dp0
(S'00010'
p1
I2
tp2
F-27.981296601992057
s(S'10001'
p3
I1
tp4
F-998.8355572502289
s(S'00100'
p5
I2
tp6
F-294.70286256239115
s(S'01000'
p7
I1
tp8
F-25.738026782893
s(S'00100'
p9
I1
tp10
F234.58804004559624
s(S'01000'
p11
I0
tp12
F217.00382285632998
s(S'10001'
p13
I0
tp14
F-998.9176842679406
s(S'00100'
p15
I0
tp16
F248.1417672205785
s(S'10000'
p17
I2
tp18
I-5
s(S'00010'
p19
I1
tp20
F-45.63950561822275
s(S'01000'
p21
I2
tp22
F-217.70904357159083
s(S'10001'
p23
I2
tp24
F-998.9589216403194
s(S'00010'
p25
I0
tp26
F-98.09483189952267
s(S'10000'
p27
I0
tp28
F18.366944340208207
s.